target datalayout = "e-m:e-p270:32:32-p271:32:32-p272:64:64-i64:64-i128:128-f80:128-n8:16:32:64-S128"
target triple = "x86_64-pc-linux-gnu"

@ff_jpeg2000_sigctxno_lut = global [256 x [4 x i8]] zeroinitializer, align 16
@ff_jpeg2000_sgnctxno_lut = global [16 x [16 x i8]] zeroinitializer, align 16
@ff_jpeg2000_xorbit_lut = global [16 x [16 x i8]] zeroinitializer, align 16
@contribtab = internal constant [3 x [3 x i32]] [[3 x i32] [i32 0, i32 -1, i32 1], [3 x i32] [i32 -1, i32 -1, i32 0], [3 x i32] [i32 1, i32 0, i32 1]], align 16
@xorbittab = internal constant [3 x [3 x i32]] [[3 x i32] [i32 1, i32 1, i32 1], [3 x i32] [i32 1, i32 0, i32 0], [3 x i32] zeroinitializer], align 16
@ctxlbltab = internal constant [3 x [3 x i32]] [[3 x i32] [i32 13, i32 12, i32 11], [3 x i32] [i32 10, i32 9, i32 10], [3 x i32] [i32 11, i32 12, i32 13]], align 16

; Function Attrs: nounwind uwtable
define internal i32 @getsgnctxno(i32 noundef %0, ptr noundef %1) #0 {
  %3 = alloca i32, align 4
  %4 = alloca ptr, align 8
  %5 = alloca i32, align 4
  %6 = alloca i32, align 4
  store i32 %0, ptr %3, align 4, !tbaa !9
  store ptr %1, ptr %4, align 8, !tbaa !117
  call void @llvm.lifetime.start.p0(i64 4, ptr %5) #8
  call void @llvm.lifetime.start.p0(i64 4, ptr %6) #8
  %7 = load i32, ptr %3, align 4, !tbaa !9
  %8 = and i32 %7, 2
  %9 = icmp ne i32 %8, 0
  br i1 %9, label %10, label %15

10:                                               ; preds = %2
  %11 = load i32, ptr %3, align 4, !tbaa !9
  %12 = and i32 %11, 2048
  %13 = icmp ne i32 %12, 0
  %14 = select i1 %13, i32 1, i32 2
  br label %16

15:                                               ; preds = %2
  br label %16

16:                                               ; preds = %15, %10
  %17 = phi i32 [ %14, %10 ], [ 0, %15 ]
  %18 = sext i32 %17 to i64
  %19 = getelementptr inbounds [3 x [3 x i32]], ptr @contribtab, i64 0, i64 %18
  %20 = load i32, ptr %3, align 4, !tbaa !9
  %21 = and i32 %20, 4
  %22 = icmp ne i32 %21, 0
  br i1 %22, label %23, label %28

23:                                               ; preds = %16
  %24 = load i32, ptr %3, align 4, !tbaa !9
  %25 = and i32 %24, 1024
  %26 = icmp ne i32 %25, 0
  %27 = select i1 %26, i32 1, i32 2
  br label %29

28:                                               ; preds = %16
  br label %29

29:                                               ; preds = %28, %23
  %30 = phi i32 [ %27, %23 ], [ 0, %28 ]
  %31 = sext i32 %30 to i64
  %32 = getelementptr inbounds [3 x i32], ptr %19, i64 0, i64 %31
  %33 = load i32, ptr %32, align 4, !tbaa !9
  %34 = add nsw i32 %33, 1
  store i32 %34, ptr %6, align 4, !tbaa !9
  %35 = load i32, ptr %3, align 4, !tbaa !9
  %36 = and i32 %35, 8
  %37 = icmp ne i32 %36, 0
  br i1 %37, label %38, label %43

38:                                               ; preds = %29
  %39 = load i32, ptr %3, align 4, !tbaa !9
  %40 = and i32 %39, 512
  %41 = icmp ne i32 %40, 0
  %42 = select i1 %41, i32 1, i32 2
  br label %44

43:                                               ; preds = %29
  br label %44

44:                                               ; preds = %43, %38
  %45 = phi i32 [ %42, %38 ], [ 0, %43 ]
  %46 = sext i32 %45 to i64
  %47 = getelementptr inbounds [3 x [3 x i32]], ptr @contribtab, i64 0, i64 %46
  %48 = load i32, ptr %3, align 4, !tbaa !9
  %49 = and i32 %48, 1
  %50 = icmp ne i32 %49, 0
  br i1 %50, label %51, label %56

51:                                               ; preds = %44
  %52 = load i32, ptr %3, align 4, !tbaa !9
  %53 = and i32 %52, 256
  %54 = icmp ne i32 %53, 0
  %55 = select i1 %54, i32 1, i32 2
  br label %57

56:                                               ; preds = %44
  br label %57

57:                                               ; preds = %56, %51
  %58 = phi i32 [ %55, %51 ], [ 0, %56 ]
  %59 = sext i32 %58 to i64
  %60 = getelementptr inbounds [3 x i32], ptr %47, i64 0, i64 %59
  %61 = load i32, ptr %60, align 4, !tbaa !9
  %62 = add nsw i32 %61, 1
  store i32 %62, ptr %5, align 4, !tbaa !9
  %63 = load i32, ptr %6, align 4, !tbaa !9
  %64 = sext i32 %63 to i64
  %65 = getelementptr inbounds [3 x [3 x i32]], ptr @xorbittab, i64 0, i64 %64
  %66 = load i32, ptr %5, align 4, !tbaa !9
  %67 = sext i32 %66 to i64
  %68 = getelementptr inbounds [3 x i32], ptr %65, i64 0, i64 %67
  %69 = load i32, ptr %68, align 4, !tbaa !9
  %70 = trunc i32 %69 to i8
  %71 = load ptr, ptr %4, align 8, !tbaa !117
  store i8 %70, ptr %71, align 1, !tbaa !20
  %72 = load i32, ptr %6, align 4, !tbaa !9
  %73 = sext i32 %72 to i64
  %74 = getelementptr inbounds [3 x [3 x i32]], ptr @ctxlbltab, i64 0, i64 %73
  %75 = load i32, ptr %5, align 4, !tbaa !9
  %76 = sext i32 %75 to i64
  %77 = getelementptr inbounds [3 x i32], ptr %74, i64 0, i64 %76
  %78 = load i32, ptr %77, align 4, !tbaa !9
  call void @llvm.lifetime.end.p0(i64 4, ptr %6) #8
  call void @llvm.lifetime.end.p0(i64 4, ptr %5) #8
  ret i32 %78
}

; Function Attrs: nounwind uwtable
define internal i32 @getsigctxno(i32 noundef %0, i32 noundef %1) #0 {
  %3 = alloca i32, align 4
  %4 = alloca i32, align 4
  %5 = alloca i32, align 4
  %6 = alloca i32, align 4
  %7 = alloca i32, align 4
  %8 = alloca i32, align 4
  %9 = alloca i32, align 4
  %10 = alloca i32, align 4
  store i32 %0, ptr %4, align 4, !tbaa !9
  store i32 %1, ptr %5, align 4, !tbaa !9
  call void @llvm.lifetime.start.p0(i64 4, ptr %6) #8
  call void @llvm.lifetime.start.p0(i64 4, ptr %7) #8
  call void @llvm.lifetime.start.p0(i64 4, ptr %8) #8
  %11 = load i32, ptr %4, align 4, !tbaa !9
  %12 = and i32 %11, 2
  %13 = icmp ne i32 %12, 0
  %14 = select i1 %13, i32 1, i32 0
  %15 = load i32, ptr %4, align 4, !tbaa !9
  %16 = and i32 %15, 4
  %17 = icmp ne i32 %16, 0
  %18 = select i1 %17, i32 1, i32 0
  %19 = add nsw i32 %14, %18
  store i32 %19, ptr %6, align 4, !tbaa !9
  %20 = load i32, ptr %4, align 4, !tbaa !9
  %21 = and i32 %20, 1
  %22 = icmp ne i32 %21, 0
  %23 = select i1 %22, i32 1, i32 0
  %24 = load i32, ptr %4, align 4, !tbaa !9
  %25 = and i32 %24, 8
  %26 = icmp ne i32 %25, 0
  %27 = select i1 %26, i32 1, i32 0
  %28 = add nsw i32 %23, %27
  store i32 %28, ptr %7, align 4, !tbaa !9
  %29 = load i32, ptr %4, align 4, !tbaa !9
  %30 = and i32 %29, 16
  %31 = icmp ne i32 %30, 0
  %32 = select i1 %31, i32 1, i32 0
  %33 = load i32, ptr %4, align 4, !tbaa !9
  %34 = and i32 %33, 32
  %35 = icmp ne i32 %34, 0
  %36 = select i1 %35, i32 1, i32 0
  %37 = add nsw i32 %32, %36
  %38 = load i32, ptr %4, align 4, !tbaa !9
  %39 = and i32 %38, 64
  %40 = icmp ne i32 %39, 0
  %41 = select i1 %40, i32 1, i32 0
  %42 = add nsw i32 %37, %41
  %43 = load i32, ptr %4, align 4, !tbaa !9
  %44 = and i32 %43, 128
  %45 = icmp ne i32 %44, 0
  %46 = select i1 %45, i32 1, i32 0
  %47 = add nsw i32 %42, %46
  store i32 %47, ptr %8, align 4, !tbaa !9
  %48 = load i32, ptr %5, align 4, !tbaa !9
  %49 = icmp slt i32 %48, 3
  br i1 %49, label %50, label %93

50:                                               ; preds = %2
  %51 = load i32, ptr %5, align 4, !tbaa !9
  %52 = icmp eq i32 %51, 1
  br i1 %52, label %53, label %60

53:                                               ; preds = %50
  br label %54

54:                                               ; preds = %53
  call void @llvm.lifetime.start.p0(i64 4, ptr %9) #8
  %55 = load i32, ptr %7, align 4, !tbaa !9
  store i32 %55, ptr %9, align 4, !tbaa !9
  %56 = load i32, ptr %6, align 4, !tbaa !9
  store i32 %56, ptr %7, align 4, !tbaa !9
  %57 = load i32, ptr %9, align 4, !tbaa !9
  store i32 %57, ptr %6, align 4, !tbaa !9
  call void @llvm.lifetime.end.p0(i64 4, ptr %9) #8
  br label %58

58:                                               ; preds = %54
  br label %59

59:                                               ; preds = %58
  br label %60

60:                                               ; preds = %59, %50
  %61 = load i32, ptr %6, align 4, !tbaa !9
  %62 = icmp eq i32 %61, 2
  br i1 %62, label %63, label %64

63:                                               ; preds = %60
  store i32 8, ptr %3, align 4
  store i32 1, ptr %10, align 4
  br label %137

64:                                               ; preds = %60
  %65 = load i32, ptr %6, align 4, !tbaa !9
  %66 = icmp eq i32 %65, 1
  br i1 %66, label %67, label %76

67:                                               ; preds = %64
  %68 = load i32, ptr %7, align 4, !tbaa !9
  %69 = icmp sge i32 %68, 1
  br i1 %69, label %70, label %71

70:                                               ; preds = %67
  store i32 7, ptr %3, align 4
  store i32 1, ptr %10, align 4
  br label %137

71:                                               ; preds = %67
  %72 = load i32, ptr %8, align 4, !tbaa !9
  %73 = icmp sge i32 %72, 1
  br i1 %73, label %74, label %75

74:                                               ; preds = %71
  store i32 6, ptr %3, align 4
  store i32 1, ptr %10, align 4
  br label %137

75:                                               ; preds = %71
  store i32 5, ptr %3, align 4
  store i32 1, ptr %10, align 4
  br label %137

76:                                               ; preds = %64
  %77 = load i32, ptr %7, align 4, !tbaa !9
  %78 = icmp eq i32 %77, 2
  br i1 %78, label %79, label %80

79:                                               ; preds = %76
  store i32 4, ptr %3, align 4
  store i32 1, ptr %10, align 4
  br label %137

80:                                               ; preds = %76
  %81 = load i32, ptr %7, align 4, !tbaa !9
  %82 = icmp eq i32 %81, 1
  br i1 %82, label %83, label %84

83:                                               ; preds = %80
  store i32 3, ptr %3, align 4
  store i32 1, ptr %10, align 4
  br label %137

84:                                               ; preds = %80
  %85 = load i32, ptr %8, align 4, !tbaa !9
  %86 = icmp sge i32 %85, 2
  br i1 %86, label %87, label %88

87:                                               ; preds = %84
  store i32 2, ptr %3, align 4
  store i32 1, ptr %10, align 4
  br label %137

88:                                               ; preds = %84
  %89 = load i32, ptr %8, align 4, !tbaa !9
  %90 = icmp eq i32 %89, 1
  br i1 %90, label %91, label %92

91:                                               ; preds = %88
  store i32 1, ptr %3, align 4
  store i32 1, ptr %10, align 4
  br label %137

92:                                               ; preds = %88
  br label %136

93:                                               ; preds = %2
  %94 = load i32, ptr %8, align 4, !tbaa !9
  %95 = icmp sge i32 %94, 3
  br i1 %95, label %96, label %97

96:                                               ; preds = %93
  store i32 8, ptr %3, align 4
  store i32 1, ptr %10, align 4
  br label %137

97:                                               ; preds = %93
  %98 = load i32, ptr %8, align 4, !tbaa !9
  %99 = icmp eq i32 %98, 2
  br i1 %99, label %100, label %107

100:                                              ; preds = %97
  %101 = load i32, ptr %6, align 4, !tbaa !9
  %102 = load i32, ptr %7, align 4, !tbaa !9
  %103 = add nsw i32 %101, %102
  %104 = icmp sge i32 %103, 1
  br i1 %104, label %105, label %106

105:                                              ; preds = %100
  store i32 7, ptr %3, align 4
  store i32 1, ptr %10, align 4
  br label %137

106:                                              ; preds = %100
  store i32 6, ptr %3, align 4
  store i32 1, ptr %10, align 4
  br label %137

107:                                              ; preds = %97
  %108 = load i32, ptr %8, align 4, !tbaa !9
  %109 = icmp eq i32 %108, 1
  br i1 %109, label %110, label %123

110:                                              ; preds = %107
  %111 = load i32, ptr %6, align 4, !tbaa !9
  %112 = load i32, ptr %7, align 4, !tbaa !9
  %113 = add nsw i32 %111, %112
  %114 = icmp sge i32 %113, 2
  br i1 %114, label %115, label %116

115:                                              ; preds = %110
  store i32 5, ptr %3, align 4
  store i32 1, ptr %10, align 4
  br label %137

116:                                              ; preds = %110
  %117 = load i32, ptr %6, align 4, !tbaa !9
  %118 = load i32, ptr %7, align 4, !tbaa !9
  %119 = add nsw i32 %117, %118
  %120 = icmp eq i32 %119, 1
  br i1 %120, label %121, label %122

121:                                              ; preds = %116
  store i32 4, ptr %3, align 4
  store i32 1, ptr %10, align 4
  br label %137

122:                                              ; preds = %116
  store i32 3, ptr %3, align 4
  store i32 1, ptr %10, align 4
  br label %137

123:                                              ; preds = %107
  %124 = load i32, ptr %6, align 4, !tbaa !9
  %125 = load i32, ptr %7, align 4, !tbaa !9
  %126 = add nsw i32 %124, %125
  %127 = icmp sge i32 %126, 2
  br i1 %127, label %128, label %129

128:                                              ; preds = %123
  store i32 2, ptr %3, align 4
  store i32 1, ptr %10, align 4
  br label %137

129:                                              ; preds = %123
  %130 = load i32, ptr %6, align 4, !tbaa !9
  %131 = load i32, ptr %7, align 4, !tbaa !9
  %132 = add nsw i32 %130, %131
  %133 = icmp eq i32 %132, 1
  br i1 %133, label %134, label %135

134:                                              ; preds = %129
  store i32 1, ptr %3, align 4
  store i32 1, ptr %10, align 4
  br label %137

135:                                              ; preds = %129
  br label %136

136:                                              ; preds = %135, %92
  store i32 0, ptr %3, align 4
  store i32 1, ptr %10, align 4
  br label %137

137:                                              ; preds = %136, %134, %128, %122, %121, %115, %106, %105, %96, %91, %87, %83, %79, %75, %74, %70, %63
  call void @llvm.lifetime.end.p0(i64 4, ptr %8) #8
  call void @llvm.lifetime.end.p0(i64 4, ptr %7) #8
  call void @llvm.lifetime.end.p0(i64 4, ptr %6) #8
  %138 = load i32, ptr %3, align 4
  ret i32 %138
}

; Function Attrs: cold nounwind optsize uwtable
define internal void @jpeg2000_init_tier1_luts() #2 {
  %1 = alloca i32, align 4
  %2 = alloca i32, align 4
  call void @llvm.lifetime.start.p0(i64 4, ptr %1) #8
  call void @llvm.lifetime.start.p0(i64 4, ptr %2) #8
  store i32 0, ptr %1, align 4, !tbaa !9
  br label %3

3:                                                ; preds = %25, %0
  %4 = load i32, ptr %1, align 4, !tbaa !9
  %5 = icmp slt i32 %4, 256
  br i1 %5, label %6, label %28

6:                                                ; preds = %3
  store i32 0, ptr %2, align 4, !tbaa !9
  br label %7

7:                                                ; preds = %21, %6
  %8 = load i32, ptr %2, align 4, !tbaa !9
  %9 = icmp slt i32 %8, 4
  br i1 %9, label %10, label %24

10:                                               ; preds = %7
  %11 = load i32, ptr %1, align 4, !tbaa !9
  %12 = load i32, ptr %2, align 4, !tbaa !9
  %13 = call i32 @getsigctxno(i32 noundef %11, i32 noundef %12)
  %14 = trunc i32 %13 to i8
  %15 = load i32, ptr %1, align 4, !tbaa !9
  %16 = sext i32 %15 to i64
  %17 = getelementptr inbounds [256 x [4 x i8]], ptr @ff_jpeg2000_sigctxno_lut, i64 0, i64 %16
  %18 = load i32, ptr %2, align 4, !tbaa !9
  %19 = sext i32 %18 to i64
  %20 = getelementptr inbounds [4 x i8], ptr %17, i64 0, i64 %19
  store i8 %14, ptr %20, align 1, !tbaa !20
  br label %21

21:                                               ; preds = %10
  %22 = load i32, ptr %2, align 4, !tbaa !9
  %23 = add nsw i32 %22, 1
  store i32 %23, ptr %2, align 4, !tbaa !9
  br label %7, !llvm.loop !21

24:                                               ; preds = %7
  br label %25

25:                                               ; preds = %24
  %26 = load i32, ptr %1, align 4, !tbaa !9
  %27 = add nsw i32 %26, 1
  store i32 %27, ptr %1, align 4, !tbaa !9
  br label %3, !llvm.loop !22

28:                                               ; preds = %3
  store i32 0, ptr %1, align 4, !tbaa !9
  br label %29

29:                                               ; preds = %59, %28
  %30 = load i32, ptr %1, align 4, !tbaa !9
  %31 = icmp slt i32 %30, 16
  br i1 %31, label %32, label %62

32:                                               ; preds = %29
  store i32 0, ptr %2, align 4, !tbaa !9
  br label %33

33:                                               ; preds = %55, %32
  %34 = load i32, ptr %2, align 4, !tbaa !9
  %35 = icmp slt i32 %34, 16
  br i1 %35, label %36, label %58

36:                                               ; preds = %33
  %37 = load i32, ptr %1, align 4, !tbaa !9
  %38 = load i32, ptr %2, align 4, !tbaa !9
  %39 = shl i32 %38, 8
  %40 = add nsw i32 %37, %39
  %41 = load i32, ptr %1, align 4, !tbaa !9
  %42 = sext i32 %41 to i64
  %43 = getelementptr inbounds [16 x [16 x i8]], ptr @ff_jpeg2000_xorbit_lut, i64 0, i64 %42
  %44 = load i32, ptr %2, align 4, !tbaa !9
  %45 = sext i32 %44 to i64
  %46 = getelementptr inbounds [16 x i8], ptr %43, i64 0, i64 %45
  %47 = call i32 @getsgnctxno(i32 noundef %40, ptr noundef %46)
  %48 = trunc i32 %47 to i8
  %49 = load i32, ptr %1, align 4, !tbaa !9
  %50 = sext i32 %49 to i64
  %51 = getelementptr inbounds [16 x [16 x i8]], ptr @ff_jpeg2000_sgnctxno_lut, i64 0, i64 %50
  %52 = load i32, ptr %2, align 4, !tbaa !9
  %53 = sext i32 %52 to i64
  %54 = getelementptr inbounds [16 x i8], ptr %51, i64 0, i64 %53
  store i8 %48, ptr %54, align 1, !tbaa !20
  br label %55

55:                                               ; preds = %36
  %56 = load i32, ptr %2, align 4, !tbaa !9
  %57 = add nsw i32 %56, 1
  store i32 %57, ptr %2, align 4, !tbaa !9
  br label %33, !llvm.loop !23

58:                                               ; preds = %33
  br label %59

59:                                               ; preds = %58
  %60 = load i32, ptr %1, align 4, !tbaa !9
  %61 = add nsw i32 %60, 1
  store i32 %61, ptr %1, align 4, !tbaa !9
  br label %29, !llvm.loop !24

62:                                               ; preds = %29
  call void @llvm.lifetime.end.p0(i64 4, ptr %2) #8
  call void @llvm.lifetime.end.p0(i64 4, ptr %1) #8
  ret void
}