; Function Attrs: cold nofree norecurse nosync nounwind optsize memory(write, argmem: none, inaccessiblemem: none) uwtable
define internal void @jpeg2000_init_tier1_luts() #3 {
  br label %.preheader22

.preheader22:                                     ; preds = %0, %.loopexit
  %indvars.iv32 = phi i64 [ 0, %0 ], [ %indvars.iv.next33, %.loopexit ]
  %1 = trunc nuw nsw i64 %indvars.iv32 to i32
  %2 = lshr i32 %1, 1
  %.lobit.i = and i32 %2, 1
  %3 = lshr i32 %1, 2
  %.lobit41.i = and i32 %3, 1
  %4 = add nuw nsw i32 %.lobit.i, %.lobit41.i
  %5 = and i32 %1, 1
  %6 = lshr i32 %1, 3
  %.lobit42.i = and i32 %6, 1
  %7 = add nuw nsw i32 %.lobit42.i, %5
  %8 = lshr i32 %1, 4
  %.lobit43.i = and i32 %8, 1
  %9 = lshr i32 %1, 5
  %.lobit44.i = and i32 %9, 1
  %10 = lshr i32 %1, 6
  %.lobit45.i = and i32 %10, 1
  %11 = lshr i32 %1, 7
  %12 = add nuw nsw i32 %.lobit44.i, %11
  %13 = add nuw nsw i32 %12, %.lobit43.i
  %14 = add nuw nsw i32 %13, %.lobit45.i
  %.not47.i = icmp eq i32 %14, 0
  %..i = select i1 %.not47.i, i8 5, i8 6
  %15 = icmp samesign ugt i32 %14, 1
  %16 = icmp samesign ugt i32 %14, 2
  %17 = add nuw nsw i32 %4, %7
  %18 = icmp samesign ugt i32 %17, 1
  %19 = icmp eq i32 %17, 1
  %.50.i = select i1 %19, i8 4, i8 3
  %20 = or i32 %4, %7
  %.not.i = icmp eq i32 %20, 0
  %.49.i = select i1 %.not.i, i8 6, i8 7
  %.mux = select i1 %15, i8 2, i8 1
  %brmerge29.not = icmp eq i32 %17, 0
  br label %21

21:                                               ; preds = %.preheader22, %getsigctxno.exit
  %indvars.iv = phi i64 [ 0, %.preheader22 ], [ %indvars.iv.next, %getsigctxno.exit ]
  %.not = icmp eq i64 %indvars.iv, 3
  br i1 %.not, label %28, label %22

22:                                               ; preds = %21
  %23 = icmp eq i64 %indvars.iv, 1
  %spec.select.i = select i1 %23, i32 %4, i32 %7
  %spec.select48.i = select i1 %23, i32 %7, i32 %4
  switch i32 %spec.select48.i, label %25 [
    i32 2, label %getsigctxno.exit
    i32 1, label %24
  ]

24:                                               ; preds = %22
  %.not51.i = icmp eq i32 %spec.select.i, 0
  %spec.select = select i1 %.not51.i, i8 %..i, i8 7
  br label %getsigctxno.exit

25:                                               ; preds = %22
  switch i32 %spec.select.i, label %27 [
    i32 2, label %getsigctxno.exit
    i32 1, label %26
  ]

26:                                               ; preds = %25
  br label %getsigctxno.exit

27:                                               ; preds = %25
  br i1 %.not47.i, label %32, label %getsigctxno.exit

28:                                               ; preds = %21
  br i1 %16, label %getsigctxno.exit.thread, label %29

29:                                               ; preds = %28
  switch i32 %14, label %31 [
    i32 2, label %getsigctxno.exit.thread
    i32 1, label %30
  ]

30:                                               ; preds = %29
  %spec.select28 = select i1 %18, i8 5, i8 %.50.i
  br label %getsigctxno.exit.thread

31:                                               ; preds = %29
  br i1 %brmerge29.not, label %32, label %getsigctxno.exit.thread.loopexit.split.loop.exit53

32:                                               ; preds = %31, %27
  br label %getsigctxno.exit

getsigctxno.exit.thread.loopexit.split.loop.exit53: ; preds = %31
  %.mux30.le = select i1 %18, i8 2, i8 1
  br label %getsigctxno.exit.thread

getsigctxno.exit.thread:                          ; preds = %28, %29, %getsigctxno.exit.thread.loopexit.split.loop.exit53, %30
  %.0.i.ph = phi i8 [ %spec.select28, %30 ], [ %.mux30.le, %getsigctxno.exit.thread.loopexit.split.loop.exit53 ], [ 8, %28 ], [ %.49.i, %29 ]
  %33 = getelementptr inbounds nuw [256 x [4 x i8]], ptr @ff_jpeg2000_sigctxno_lut, i64 0, i64 %indvars.iv32, i64 %indvars.iv
  store i8 %.0.i.ph, ptr %33, align 1, !tbaa !15
  br label %.loopexit

getsigctxno.exit:                                 ; preds = %24, %27, %22, %25, %26, %32
  %.0.i = phi i8 [ 3, %26 ], [ 0, %32 ], [ 8, %22 ], [ 4, %25 ], [ %.mux, %27 ], [ %spec.select, %24 ]
  %34 = getelementptr inbounds nuw [256 x [4 x i8]], ptr @ff_jpeg2000_sigctxno_lut, i64 0, i64 %indvars.iv32, i64 %indvars.iv
  store i8 %.0.i, ptr %34, align 1, !tbaa !15
  %indvars.iv.next = add nuw nsw i64 %indvars.iv, 1
  %exitcond.not = icmp eq i64 %indvars.iv.next, 4
  br i1 %exitcond.not, label %.loopexit, label %21, !llvm.loop !16

.loopexit:                                        ; preds = %getsigctxno.exit, %getsigctxno.exit.thread
  %indvars.iv.next33 = add nuw nsw i64 %indvars.iv32, 1
  %exitcond35.not = icmp eq i64 %indvars.iv.next33, 256
  br i1 %exitcond35.not, label %.preheader, label %.preheader22, !llvm.loop !17

.preheader:                                       ; preds = %.loopexit, %68
  %indvars.iv40 = phi i64 [ %indvars.iv.next41, %68 ], [ 0, %.loopexit ]
  %35 = trunc nuw nsw i64 %indvars.iv40 to i32
  %36 = and i32 %35, 2
  %.not.i20 = icmp eq i32 %36, 0
  %37 = and i32 %35, 4
  %.not13.i = icmp eq i32 %37, 0
  %.not15.i = icmp samesign ult i64 %indvars.iv40, 8
  %38 = and i32 %35, 1
  %.not17.i = icmp eq i32 %38, 0
  br label %39

39:                                               ; preds = %.preheader, %39
  %indvars.iv36 = phi i64 [ 0, %.preheader ], [ %indvars.iv.next37, %39 ]
  %40 = getelementptr inbounds nuw [16 x [16 x i8]], ptr @ff_jpeg2000_xorbit_lut, i64 0, i64 %indvars.iv40, i64 %indvars.iv36
  %.not12.i = icmp samesign ult i64 %indvars.iv36, 8
  %41 = select i1 %.not12.i, i64 2, i64 1
  %42 = select i1 %.not.i20, i64 0, i64 %41
  %43 = trunc nuw nsw i64 %indvars.iv36 to i32
  %44 = and i32 %43, 4
  %.not14.i = icmp eq i32 %44, 0
  %45 = select i1 %.not14.i, i64 2, i64 1
  %46 = select i1 %.not13.i, i64 0, i64 %45
  %47 = getelementptr inbounds nuw [3 x [3 x i32]], ptr @contribtab, i64 0, i64 %42, i64 %46
  %48 = load i32, ptr %47, align 4, !tbaa !18
  %49 = add nsw i32 %48, 1
  %50 = and i32 %43, 2
  %.not16.i = icmp eq i32 %50, 0
  %51 = select i1 %.not16.i, i64 2, i64 1
  %52 = select i1 %.not15.i, i64 0, i64 %51
  %53 = and i32 %43, 1
  %.not18.i = icmp eq i32 %53, 0
  %54 = select i1 %.not18.i, i64 2, i64 1
  %55 = select i1 %.not17.i, i64 0, i64 %54
  %56 = getelementptr inbounds nuw [3 x [3 x i32]], ptr @contribtab, i64 0, i64 %52, i64 %55
  %57 = load i32, ptr %56, align 4, !tbaa !18
  %58 = add nsw i32 %57, 1
  %59 = sext i32 %49 to i64
  %60 = sext i32 %58 to i64
  %61 = getelementptr inbounds [3 x [3 x i32]], ptr @xorbittab, i64 0, i64 %59, i64 %60
  %62 = load i32, ptr %61, align 4, !tbaa !18
  %63 = trunc i32 %62 to i8
  store i8 %63, ptr %40, align 1, !tbaa !15
  %64 = getelementptr inbounds [3 x [3 x i32]], ptr @ctxlbltab, i64 0, i64 %59, i64 %60
  %65 = load i32, ptr %64, align 4, !tbaa !18
  %66 = trunc i32 %65 to i8
  %67 = getelementptr inbounds nuw [16 x [16 x i8]], ptr @ff_jpeg2000_sgnctxno_lut, i64 0, i64 %indvars.iv40, i64 %indvars.iv36
  store i8 %66, ptr %67, align 1, !tbaa !15
  %indvars.iv.next37 = add nuw nsw i64 %indvars.iv36, 1
  %exitcond39.not = icmp eq i64 %indvars.iv.next37, 16
  br i1 %exitcond39.not, label %68, label %39, !llvm.loop !20

68:                                               ; preds = %39
  %indvars.iv.next41 = add nuw nsw i64 %indvars.iv40, 1
  %exitcond43.not = icmp eq i64 %indvars.iv.next41, 16
  br i1 %exitcond43.not, label %69, label %.preheader, !llvm.loop !21

69:                                               ; preds = %68
  ret void
}